#include <math.h>
#include <stdio.h>
#include <stdlib.h>
#include <string.h>

int main(){
	int n,i,m[1000],k,f0=1,f1=2,f2;
	double q[1000]={0};
	scanf("%d",&n);
	for(i=0;i<n;i++){
	   scanf("%d",&m[i]);
	}
    for(i=0;i<n;i++){
f0=1,f1=2;
		for(k=0;k<m[i];k++){
			q[i]+=1.0*f1/f0;
			f2=f1+f0;
			f0=f1;
			f1=f2;
		}
	}
for(i=0;i<n;i++){
	printf("%.3lf\n",q[i]);
}
           return 0;
}